target datalayout = "e-m:e-p270:32:32-p271:32:32-p272:64:64-i64:64-i128:128-f80:128-n8:16:32:64-S128"
target triple = "x86_64-unknown-linux-gnu"

%"class.icu_75::UObject" = type { ptr }
%"class.icu_75::UnicodeString" = type { %"class.icu_75::Replaceable", %"union.icu_75::UnicodeString::StackBufferOrFields" }
%"class.icu_75::Replaceable" = type { %"class.icu_75::UObject" }
%"union.icu_75::UnicodeString::StackBufferOrFields" = type { %struct.anon.0, [32 x i8] }
%struct.anon.0 = type { i16, i32, i32, ptr }

@_ZTIN6icu_7512NumberFormatE = external constant ptr
@_ZTIN6icu_7513DecimalFormatE = external constant ptr
@_ZTIN6icu_7521RuleBasedNumberFormatE = external constant ptr

; Function Attrs: mustprogress nounwind uwtable
define internal noundef signext i8 @_ZL9U_FAILURE10UErrorCode(i32 noundef %code) #1 {
entry:
  %code.addr = alloca i32, align 4
  store i32 %code, ptr %code.addr, align 4
  %0 = load i32, ptr %code.addr, align 4
  %cmp = icmp sgt i32 %0, 0
  %conv = zext i1 %cmp to i8
  ret i8 %conv
}

; Function Attrs: mustprogress uwtable
define void @unum_setTextAttribute_75(ptr noundef %fmt, i32 noundef %tag, ptr noundef %newValue, i32 noundef %newValueLength, ptr noundef %status) #0 personality ptr @__gxx_personality_v0 {
entry:
  %fmt.addr = alloca ptr, align 8
  %tag.addr = alloca i32, align 4
  %newValue.addr = alloca ptr, align 8
  %newValueLength.addr = alloca i32, align 4
  %status.addr = alloca ptr, align 8
  %val = alloca %"class.icu_75::UnicodeString", align 8
  %nf = alloca ptr, align 8
  %df = alloca ptr, align 8
  %exn.slot = alloca ptr, align 8
  %ehselector.slot = alloca i32, align 4
  %rbnf = alloca ptr, align 8
  store ptr %fmt, ptr %fmt.addr, align 8
  store i32 %tag, ptr %tag.addr, align 4
  store ptr %newValue, ptr %newValue.addr, align 8
  store i32 %newValueLength, ptr %newValueLength.addr, align 4
  store ptr %status, ptr %status.addr, align 8
  %0 = load ptr, ptr %status.addr, align 8
  %1 = load i32, ptr %0, align 4
  %call = call noundef signext i8 @_ZL9U_FAILURE10UErrorCode(i32 noundef %1)
  %tobool = icmp ne i8 %call, 0
  br i1 %tobool, label %if.then, label %if.end

if.then:                                          ; preds = %entry
  br label %return

if.end:                                           ; preds = %entry
  %2 = load ptr, ptr %newValue.addr, align 8
  %3 = load i32, ptr %newValueLength.addr, align 4
  call void @_ZN6icu_7513UnicodeStringC1EPKDsi(ptr noundef nonnull align 8 dereferenceable(64) %val, ptr noundef %2, i32 noundef %3)
  %4 = load ptr, ptr %fmt.addr, align 8
  store ptr %4, ptr %nf, align 8
  %5 = load ptr, ptr %nf, align 8
  %6 = icmp eq ptr %5, null
  br i1 %6, label %dynamic_cast.null, label %dynamic_cast.notnull

dynamic_cast.notnull:                             ; preds = %if.end
  %7 = call ptr @__dynamic_cast(ptr %5, ptr @_ZTIN6icu_7512NumberFormatE, ptr @_ZTIN6icu_7513DecimalFormatE, i64 0) #8
  br label %dynamic_cast.end

dynamic_cast.null:                                ; preds = %if.end
  br label %dynamic_cast.end

dynamic_cast.end:                                 ; preds = %dynamic_cast.null, %dynamic_cast.notnull
  %8 = phi ptr [ %7, %dynamic_cast.notnull ], [ null, %dynamic_cast.null ]
  store ptr %8, ptr %df, align 8
  %9 = load ptr, ptr %df, align 8
  %cmp = icmp ne ptr %9, null
  br i1 %cmp, label %if.then1, label %if.else

if.then1:                                         ; preds = %dynamic_cast.end
  %10 = load i32, ptr %tag.addr, align 4
  switch i32 %10, label %sw.default [
    i32 0, label %sw.bb
    i32 1, label %sw.bb2
    i32 2, label %sw.bb6
    i32 3, label %sw.bb10
    i32 4, label %sw.bb14
    i32 5, label %sw.bb18
  ]

sw.bb:                                            ; preds = %if.then1
  %11 = load ptr, ptr %df, align 8
  %vtable = load ptr, ptr %11, align 8
  %vfn = getelementptr inbounds ptr, ptr %vtable, i64 45
  %12 = load ptr, ptr %vfn, align 8
  invoke void %12(ptr noundef nonnull align 8 dereferenceable(368) %11, ptr noundef nonnull align 8 dereferenceable(64) %val)
          to label %invoke.cont unwind label %lpad

invoke.cont:                                      ; preds = %sw.bb
  br label %sw.epilog

lpad:                                             ; preds = %if.then28, %invoke.cont19, %sw.bb18, %sw.bb14, %sw.bb10, %sw.bb6, %sw.bb2, %sw.bb
  %13 = landingpad { ptr, i32 }
          cleanup
  %14 = extractvalue { ptr, i32 } %13, 0
  store ptr %14, ptr %exn.slot, align 8
  %15 = extractvalue { ptr, i32 } %13, 1
  store i32 %15, ptr %ehselector.slot, align 4
  call void @_ZN6icu_7513UnicodeStringD1Ev(ptr noundef nonnull align 8 dereferenceable(64) %val) #8
  br label %eh.resume

sw.bb2:                                           ; preds = %if.then1
  %16 = load ptr, ptr %df, align 8
  %vtable3 = load ptr, ptr %16, align 8
  %vfn4 = getelementptr inbounds ptr, ptr %vtable3, i64 47
  %17 = load ptr, ptr %vfn4, align 8
  invoke void %17(ptr noundef nonnull align 8 dereferenceable(368) %16, ptr noundef nonnull align 8 dereferenceable(64) %val)
          to label %invoke.cont5 unwind label %lpad

invoke.cont5:                                     ; preds = %sw.bb2
  br label %sw.epilog

sw.bb6:                                           ; preds = %if.then1
  %18 = load ptr, ptr %df, align 8
  %vtable7 = load ptr, ptr %18, align 8
  %vfn8 = getelementptr inbounds ptr, ptr %vtable7, i64 46
  %19 = load ptr, ptr %vfn8, align 8
  invoke void %19(ptr noundef nonnull align 8 dereferenceable(368) %18, ptr noundef nonnull align 8 dereferenceable(64) %val)
          to label %invoke.cont9 unwind label %lpad

invoke.cont9:                                     ; preds = %sw.bb6
  br label %sw.epilog

sw.bb10:                                          ; preds = %if.then1
  %20 = load ptr, ptr %df, align 8
  %vtable11 = load ptr, ptr %20, align 8
  %vfn12 = getelementptr inbounds ptr, ptr %vtable11, i64 48
  %21 = load ptr, ptr %vfn12, align 8
  invoke void %21(ptr noundef nonnull align 8 dereferenceable(368) %20, ptr noundef nonnull align 8 dereferenceable(64) %val)
          to label %invoke.cont13 unwind label %lpad

invoke.cont13:                                    ; preds = %sw.bb10
  br label %sw.epilog

sw.bb14:                                          ; preds = %if.then1
  %22 = load ptr, ptr %df, align 8
  %vtable15 = load ptr, ptr %22, align 8
  %vfn16 = getelementptr inbounds ptr, ptr %vtable15, i64 55
  %23 = load ptr, ptr %vfn16, align 8
  invoke void %23(ptr noundef nonnull align 8 dereferenceable(368) %22, ptr noundef nonnull align 8 dereferenceable(64) %val)
          to label %invoke.cont17 unwind label %lpad

invoke.cont17:                                    ; preds = %sw.bb14
  br label %sw.epilog

sw.bb18:                                          ; preds = %if.then1
  %24 = load ptr, ptr %df, align 8
  %call20 = invoke noundef ptr @_ZN6icu_7513UnicodeString19getTerminatedBufferEv(ptr noundef nonnull align 8 dereferenceable(64) %val)
          to label %invoke.cont19 unwind label %lpad

invoke.cont19:                                    ; preds = %sw.bb18
  %25 = load ptr, ptr %status.addr, align 8
  %vtable21 = load ptr, ptr %24, align 8
  %vfn22 = getelementptr inbounds ptr, ptr %vtable21, i64 31
  %26 = load ptr, ptr %vfn22, align 8
  invoke void %26(ptr noundef nonnull align 8 dereferenceable(368) %24, ptr noundef %call20, ptr noundef nonnull align 4 dereferenceable(4) %25)
          to label %invoke.cont23 unwind label %lpad

invoke.cont23:                                    ; preds = %invoke.cont19
  br label %sw.epilog

sw.default:                                       ; preds = %if.then1
  %27 = load ptr, ptr %status.addr, align 8
  store i32 16, ptr %27, align 4
  br label %sw.epilog

sw.epilog:                                        ; preds = %sw.default, %invoke.cont23, %invoke.cont17, %invoke.cont13, %invoke.cont9, %invoke.cont5, %invoke.cont
  br label %if.end34

if.else:                                          ; preds = %dynamic_cast.end
  %28 = load ptr, ptr %nf, align 8
  %29 = icmp eq ptr %28, null
  br i1 %29, label %dynamic_cast.null25, label %dynamic_cast.notnull24

dynamic_cast.notnull24:                           ; preds = %if.else
  %30 = call ptr @__dynamic_cast(ptr %28, ptr @_ZTIN6icu_7512NumberFormatE, ptr @_ZTIN6icu_7521RuleBasedNumberFormatE, i64 0) #8
  br label %dynamic_cast.end26

dynamic_cast.null25:                              ; preds = %if.else
  br label %dynamic_cast.end26

dynamic_cast.end26:                               ; preds = %dynamic_cast.null25, %dynamic_cast.notnull24
  %31 = phi ptr [ %30, %dynamic_cast.notnull24 ], [ null, %dynamic_cast.null25 ]
  store ptr %31, ptr %rbnf, align 8
  %32 = load i32, ptr %tag.addr, align 4
  %cmp27 = icmp eq i32 %32, 6
  br i1 %cmp27, label %if.then28, label %if.else32

if.then28:                                        ; preds = %dynamic_cast.end26
  %33 = load ptr, ptr %rbnf, align 8
  %34 = load ptr, ptr %status.addr, align 8
  %vtable29 = load ptr, ptr %33, align 8
  %vfn30 = getelementptr inbounds ptr, ptr %vtable29, i64 47
  %35 = load ptr, ptr %vfn30, align 8
  invoke void %35(ptr noundef nonnull align 8 dereferenceable(752) %33, ptr noundef nonnull align 8 dereferenceable(64) %val, ptr noundef nonnull align 4 dereferenceable(4) %34)
          to label %invoke.cont31 unwind label %lpad

invoke.cont31:                                    ; preds = %if.then28
  br label %if.end33

if.else32:                                        ; preds = %dynamic_cast.end26
  %36 = load ptr, ptr %status.addr, align 8
  store i32 16, ptr %36, align 4
  br label %if.end33

if.end33:                                         ; preds = %if.else32, %invoke.cont31
  br label %if.end34

if.end34:                                         ; preds = %if.end33, %sw.epilog
  call void @_ZN6icu_7513UnicodeStringD1Ev(ptr noundef nonnull align 8 dereferenceable(64) %val) #8
  br label %return

return:                                           ; preds = %if.end34, %if.then
  ret void

eh.resume:                                        ; preds = %lpad
  %exn = load ptr, ptr %exn.slot, align 8
  %sel = load i32, ptr %ehselector.slot, align 4
  %lpad.val = insertvalue { ptr, i32 } poison, ptr %exn, 0
  %lpad.val35 = insertvalue { ptr, i32 } %lpad.val, i32 %sel, 1
  resume { ptr, i32 } %lpad.val35
}