; Function Attrs: mustprogress uwtable
define void @unum_setTextAttribute_75(ptr noundef %fmt, i32 noundef %tag, ptr noundef %newValue, i32 noundef %newValueLength, ptr noundef %status) local_unnamed_addr #0 personality ptr @__gxx_personality_v0 {
entry:
  %val = alloca %"class.icu_75::UnicodeString", align 8
  %0 = load i32, ptr %status, align 4
  %cmp.i = icmp slt i32 %0, 1
  br i1 %cmp.i, label %if.end, label %return

if.end:                                           ; preds = %entry
  call void @_ZN6icu_7513UnicodeStringC1EPKDsi(ptr noundef nonnull align 8 dereferenceable(64) %val, ptr noundef %newValue, i32 noundef %newValueLength)
  %1 = icmp eq ptr %fmt, null
  br i1 %1, label %dynamic_cast.end26, label %dynamic_cast.end

dynamic_cast.end:                                 ; preds = %if.end
  %2 = call ptr @__dynamic_cast(ptr nonnull %fmt, ptr nonnull @_ZTIN6icu_7512NumberFormatE, ptr nonnull @_ZTIN6icu_7513DecimalFormatE, i64 0) #10
  %cmp.not = icmp eq ptr %2, null
  br i1 %cmp.not, label %dynamic_cast.notnull24, label %if.then1

if.then1:                                         ; preds = %dynamic_cast.end
  switch i32 %tag, label %if.end34.sink.split [
    i32 0, label %sw.bb14.invoke
    i32 1, label %sw.bb2
    i32 2, label %sw.bb6
    i32 3, label %sw.bb10
    i32 4, label %sw.bb14
    i32 5, label %sw.bb18
  ]

lpad:                                             ; preds = %sw.bb14.invoke, %if.then28, %invoke.cont19, %sw.bb18
  %3 = landingpad { ptr, i32 }
          cleanup
  call void @_ZN6icu_7513UnicodeStringD1Ev(ptr noundef nonnull align 8 dereferenceable(64) %val) #10
  resume { ptr, i32 } %3

sw.bb2:                                           ; preds = %if.then1
  br label %sw.bb14.invoke

sw.bb6:                                           ; preds = %if.then1
  br label %sw.bb14.invoke

sw.bb10:                                          ; preds = %if.then1
  br label %sw.bb14.invoke

sw.bb14:                                          ; preds = %if.then1
  br label %sw.bb14.invoke

sw.bb14.invoke:                                   ; preds = %if.then1, %sw.bb2, %sw.bb6, %sw.bb10, %sw.bb14
  %.sink = phi i64 [ 376, %sw.bb2 ], [ 368, %sw.bb6 ], [ 384, %sw.bb10 ], [ 440, %sw.bb14 ], [ 360, %if.then1 ]
  %vtable = load ptr, ptr %2, align 8
  %vfn = getelementptr inbounds i8, ptr %vtable, i64 %.sink
  %4 = load ptr, ptr %vfn, align 8
  invoke void %4(ptr noundef nonnull align 8 dereferenceable(368) %2, ptr noundef nonnull align 8 dereferenceable(64) %val)
          to label %if.end34 unwind label %lpad

sw.bb18:                                          ; preds = %if.then1
  %call20 = invoke noundef ptr @_ZN6icu_7513UnicodeString19getTerminatedBufferEv(ptr noundef nonnull align 8 dereferenceable(64) %val)
          to label %invoke.cont19 unwind label %lpad

invoke.cont19:                                    ; preds = %sw.bb18
  %vtable21 = load ptr, ptr %2, align 8
  %vfn22 = getelementptr inbounds i8, ptr %vtable21, i64 248
  %5 = load ptr, ptr %vfn22, align 8
  invoke void %5(ptr noundef nonnull align 8 dereferenceable(368) %2, ptr noundef %call20, ptr noundef nonnull align 4 dereferenceable(4) %status)
          to label %if.end34 unwind label %lpad

dynamic_cast.notnull24:                           ; preds = %dynamic_cast.end
  %6 = call ptr @__dynamic_cast(ptr nonnull %fmt, ptr nonnull @_ZTIN6icu_7512NumberFormatE, ptr nonnull @_ZTIN6icu_7521RuleBasedNumberFormatE, i64 0) #10
  br label %dynamic_cast.end26

dynamic_cast.end26:                               ; preds = %if.end, %dynamic_cast.notnull24
  %7 = phi ptr [ %6, %dynamic_cast.notnull24 ], [ null, %if.end ]
  %cmp27 = icmp eq i32 %tag, 6
  br i1 %cmp27, label %if.then28, label %if.end34.sink.split

if.then28:                                        ; preds = %dynamic_cast.end26
  %vtable29 = load ptr, ptr %7, align 8
  %vfn30 = getelementptr inbounds i8, ptr %vtable29, i64 376
  %8 = load ptr, ptr %vfn30, align 8
  invoke void %8(ptr noundef nonnull align 8 dereferenceable(752) %7, ptr noundef nonnull align 8 dereferenceable(64) %val, ptr noundef nonnull align 4 dereferenceable(4) %status)
          to label %if.end34 unwind label %lpad

if.end34.sink.split:                              ; preds = %dynamic_cast.end26, %if.then1
  store i32 16, ptr %status, align 4
  br label %if.end34

if.end34:                                         ; preds = %if.end34.sink.split, %sw.bb14.invoke, %if.then28, %invoke.cont19
  call void @_ZN6icu_7513UnicodeStringD1Ev(ptr noundef nonnull align 8 dereferenceable(64) %val) #10
  br label %return

return:                                           ; preds = %entry, %if.end34
  ret void
}